target datalayout = "e-m:e-p270:32:32-p271:32:32-p272:64:64-i64:64-i128:128-f80:128-n8:16:32:64-S128"
target triple = "x86_64-pc-linux-gnu"

%struct.expert_field = type { i32, i32 }
%struct._packet_info = type { ptr, ptr, i32, i32, %struct.nstime_t, %struct.nstime_t, %struct.nstime_t, i8, ptr, ptr, ptr, ptr, %struct._address, %struct._address, %struct._address, %struct._address, %struct._address, %struct._address, i32, ptr, i8, [3 x i8], %struct.anon, i32, i32, i32, i32, ptr, i8, ptr, ptr, i16, i16, i32, i32, i16, i32, i32, ptr, ptr, ptr, i8, i8, i16, i16, i16, i32, i16, i16, ptr, ptr, ptr, ptr, ptr, i32, i32 }
%struct.nstime_t = type { i64, i32 }
%struct._address = type { i32, i32, ptr, ptr }
%struct.anon = type { i8, [3 x i8] }

@hf_knxip_reserved = internal global i32 0, align 4
@hf_knxip_session_status = internal global i32 0, align 4
@ei_knxip_error = hidden global %struct.expert_field zeroinitializer, align 4
@.str.231 = private unnamed_addr constant [3 x i8] c"? \00", align 1
@.str.408 = private unnamed_addr constant [28 x i8] c"? Reserved: expected 1 byte\00", align 1
@.str.409 = private unnamed_addr constant [15 x i8] c"Expected: 0x00\00", align 1
@.str.483 = private unnamed_addr constant [26 x i8] c"? Status: expected 1 byte\00", align 1
@.str.484 = private unnamed_addr constant [4 x i8] c" %u\00", align 1
@.str.485 = private unnamed_addr constant [5 x i8] c": %u\00", align 1

; Function Attrs: null_pointer_is_valid sspstrong uwtable
define internal ptr @knxip_tree_add_reserved(ptr noundef %0, ptr noundef %1, i32 noundef %2, ptr noundef %3, ptr noundef %4) #0 {
  %6 = alloca ptr, align 8
  %7 = alloca ptr, align 8
  %8 = alloca i32, align 4
  %9 = alloca ptr, align 8
  %10 = alloca ptr, align 8
  %11 = alloca ptr, align 8
  store ptr %0, ptr %6, align 8
  store ptr %1, ptr %7, align 8
  store i32 %2, ptr %8, align 4
  store ptr %3, ptr %9, align 8
  store ptr %4, ptr %10, align 8
  call void @llvm.lifetime.start.p0(i64 8, ptr %11) #9
  %12 = load ptr, ptr %6, align 8
  %13 = load i32, ptr @hf_knxip_reserved, align 4
  %14 = load ptr, ptr %7, align 8
  %15 = load i32, ptr %8, align 4
  %16 = call ptr @proto_tree_add_item(ptr noundef %12, i32 noundef %13, ptr noundef %14, i32 noundef %15, i32 noundef 1, i32 noundef 0)
  store ptr %16, ptr %11, align 8
  %17 = load ptr, ptr %7, align 8
  %18 = load i32, ptr %8, align 4
  %19 = call zeroext i8 @tvb_get_uint8(ptr noundef %17, i32 noundef %18)
  %20 = icmp ne i8 %19, 0
  br i1 %20, label %21, label %31

21:                                               ; preds = %5
  %22 = load ptr, ptr %11, align 8
  call void (ptr, ptr, ...) @proto_item_prepend_text(ptr noundef %22, ptr noundef @.str.231)
  %23 = load ptr, ptr %9, align 8
  %24 = load ptr, ptr %11, align 8
  %25 = call ptr (ptr, ptr, ptr, ptr, ...) @expert_add_info_format(ptr noundef %23, ptr noundef %24, ptr noundef @ei_knxip_error, ptr noundef @.str.409)
  %26 = load ptr, ptr %10, align 8
  %27 = icmp ne ptr %26, null
  br i1 %27, label %28, label %30

28:                                               ; preds = %21
  %29 = load ptr, ptr %10, align 8
  store i8 0, ptr %29, align 1
  br label %30

30:                                               ; preds = %28, %21
  br label %31

31:                                               ; preds = %30, %5
  %32 = load ptr, ptr %11, align 8
  call void @llvm.lifetime.end.p0(i64 8, ptr %11) #9
  ret ptr %32
}

; Function Attrs: null_pointer_is_valid sspstrong uwtable
define internal zeroext i8 @dissect_session_status(ptr noundef %0, ptr noundef %1, ptr noundef %2, ptr noundef %3, ptr noundef %4) #0 {
  %6 = alloca ptr, align 8
  %7 = alloca ptr, align 8
  %8 = alloca ptr, align 8
  %9 = alloca ptr, align 8
  %10 = alloca ptr, align 8
  %11 = alloca i8, align 1
  %12 = alloca i32, align 4
  %13 = alloca ptr, align 8
  %14 = alloca i32, align 4
  %15 = alloca i8, align 1
  store ptr %0, ptr %6, align 8
  store ptr %1, ptr %7, align 8
  store ptr %2, ptr %8, align 8
  store ptr %3, ptr %9, align 8
  store ptr %4, ptr %10, align 8
  call void @llvm.lifetime.start.p0(i64 1, ptr %11) #9
  store i8 1, ptr %11, align 1
  call void @llvm.lifetime.start.p0(i64 4, ptr %12) #9
  %16 = load ptr, ptr %10, align 8
  %17 = load i32, ptr %16, align 4
  store i32 %17, ptr %12, align 4
  call void @llvm.lifetime.start.p0(i64 8, ptr %13) #9
  %18 = load ptr, ptr %7, align 8
  %19 = getelementptr inbounds nuw %struct._packet_info, ptr %18, i32 0, i32 1
  %20 = load ptr, ptr %19, align 8
  store ptr %20, ptr %13, align 8
  call void @llvm.lifetime.start.p0(i64 4, ptr %14) #9
  %21 = load ptr, ptr %6, align 8
  %22 = load i32, ptr %12, align 4
  %23 = call i32 @tvb_captured_length_remaining(ptr noundef %21, i32 noundef %22)
  store i32 %23, ptr %14, align 4
  %24 = load i32, ptr %14, align 4
  %25 = icmp sle i32 %24, 0
  br i1 %25, label %26, label %32

26:                                               ; preds = %5
  %27 = load ptr, ptr %9, align 8
  %28 = load ptr, ptr %7, align 8
  %29 = load ptr, ptr %6, align 8
  %30 = load i32, ptr %12, align 4
  %31 = call ptr (ptr, ptr, ptr, ptr, i32, i32, ptr, ...) @proto_tree_add_expert_format(ptr noundef %27, ptr noundef %28, ptr noundef @ei_knxip_error, ptr noundef %29, i32 noundef %30, i32 noundef 0, ptr noundef @.str.483)
  store i8 0, ptr %11, align 1
  br label %70

32:                                               ; preds = %5
  call void @llvm.lifetime.start.p0(i64 1, ptr %15) #9
  %33 = load ptr, ptr %6, align 8
  %34 = load i32, ptr %12, align 4
  %35 = call zeroext i8 @tvb_get_uint8(ptr noundef %33, i32 noundef %34)
  store i8 %35, ptr %15, align 1
  %36 = load ptr, ptr %13, align 8
  %37 = load i8, ptr %15, align 1
  %38 = zext i8 %37 to i32
  call void (ptr, i32, ptr, ...) @col_append_fstr(ptr noundef %36, i32 noundef 25, ptr noundef @.str.484, i32 noundef %38)
  %39 = load ptr, ptr %8, align 8
  %40 = load i8, ptr %15, align 1
  %41 = zext i8 %40 to i32
  call void (ptr, ptr, ...) @proto_item_append_text(ptr noundef %39, ptr noundef @.str.485, i32 noundef %41)
  %42 = load ptr, ptr %9, align 8
  %43 = load i32, ptr @hf_knxip_session_status, align 4
  %44 = load ptr, ptr %6, align 8
  %45 = load i32, ptr %12, align 4
  %46 = call ptr @proto_tree_add_item(ptr noundef %42, i32 noundef %43, ptr noundef %44, i32 noundef %45, i32 noundef 1, i32 noundef 0)
  %47 = load i32, ptr %12, align 4
  %48 = add i32 %47, 1
  store i32 %48, ptr %12, align 4
  %49 = load i32, ptr %14, align 4
  %50 = add i32 %49, -1
  store i32 %50, ptr %14, align 4
  %51 = load i32, ptr %14, align 4
  %52 = icmp sle i32 %51, 0
  br i1 %52, label %53, label %59

53:                                               ; preds = %32
  %54 = load ptr, ptr %9, align 8
  %55 = load ptr, ptr %7, align 8
  %56 = load ptr, ptr %6, align 8
  %57 = load i32, ptr %12, align 4
  %58 = call ptr (ptr, ptr, ptr, ptr, i32, i32, ptr, ...) @proto_tree_add_expert_format(ptr noundef %54, ptr noundef %55, ptr noundef @ei_knxip_error, ptr noundef %56, i32 noundef %57, i32 noundef 0, ptr noundef @.str.408)
  store i8 0, ptr %11, align 1
  br label %69

59:                                               ; preds = %32
  %60 = load ptr, ptr %9, align 8
  %61 = load ptr, ptr %6, align 8
  %62 = load i32, ptr %12, align 4
  %63 = load ptr, ptr %7, align 8
  %64 = call ptr @knxip_tree_add_reserved(ptr noundef %60, ptr noundef %61, i32 noundef %62, ptr noundef %63, ptr noundef %11)
  %65 = load i32, ptr %12, align 4
  %66 = add i32 %65, 1
  store i32 %66, ptr %12, align 4
  %67 = load i32, ptr %14, align 4
  %68 = add i32 %67, -1
  store i32 %68, ptr %14, align 4
  br label %69

69:                                               ; preds = %59, %53
  call void @llvm.lifetime.end.p0(i64 1, ptr %15) #9
  br label %70

70:                                               ; preds = %69, %26
  %71 = load i32, ptr %12, align 4
  %72 = load ptr, ptr %10, align 8
  store i32 %71, ptr %72, align 4
  %73 = load i8, ptr %11, align 1
  call void @llvm.lifetime.end.p0(i64 4, ptr %14) #9
  call void @llvm.lifetime.end.p0(i64 8, ptr %13) #9
  call void @llvm.lifetime.end.p0(i64 4, ptr %12) #9
  call void @llvm.lifetime.end.p0(i64 1, ptr %11) #9
  ret i8 %73
}