; Function Attrs: null_pointer_is_valid sspstrong uwtable
define internal fastcc zeroext range(i8 0, 2) i8 @dissect_session_status(ptr noundef %0, ptr noundef %1, ptr noundef %2, ptr noundef %3, ptr noundef captures(none) %4) unnamed_addr #0 {
  %6 = load i32, ptr %4, align 4
  %7 = getelementptr inbounds nuw i8, ptr %1, i64 8
  %8 = load ptr, ptr %7, align 8
  %9 = tail call i32 @tvb_captured_length_remaining(ptr noundef %0, i32 noundef %6)
  %10 = icmp slt i32 %9, 1
  br i1 %10, label %11, label %13

11:                                               ; preds = %5
  %12 = tail call ptr (ptr, ptr, ptr, ptr, i32, i32, ptr, ...) @proto_tree_add_expert_format(ptr noundef %3, ptr noundef %1, ptr noundef nonnull @ei_knxip_error, ptr noundef %0, i32 noundef %6, i32 noundef 0, ptr noundef nonnull @.str.483)
  br label %29

13:                                               ; preds = %5
  %14 = tail call zeroext i8 @tvb_get_uint8(ptr noundef %0, i32 noundef %6)
  %15 = zext i8 %14 to i32
  tail call void (ptr, i32, ptr, ...) @col_append_fstr(ptr noundef %8, i32 noundef 25, ptr noundef nonnull @.str.484, i32 noundef %15)
  tail call void (ptr, ptr, ...) @proto_item_append_text(ptr noundef %2, ptr noundef nonnull @.str.485, i32 noundef %15)
  %16 = load i32, ptr @hf_knxip_session_status, align 4
  %17 = tail call ptr @proto_tree_add_item(ptr noundef %3, i32 noundef %16, ptr noundef %0, i32 noundef %6, i32 noundef 1, i32 noundef 0)
  %18 = add i32 %6, 1
  %19 = icmp eq i32 %9, 1
  br i1 %19, label %20, label %22

20:                                               ; preds = %13
  %21 = tail call ptr (ptr, ptr, ptr, ptr, i32, i32, ptr, ...) @proto_tree_add_expert_format(ptr noundef %3, ptr noundef %1, ptr noundef nonnull @ei_knxip_error, ptr noundef %0, i32 noundef %18, i32 noundef 0, ptr noundef nonnull @.str.408)
  br label %29

22:                                               ; preds = %13
  %23 = load i32, ptr @hf_knxip_reserved, align 4
  %24 = tail call ptr @proto_tree_add_item(ptr noundef %3, i32 noundef %23, ptr noundef %0, i32 noundef %18, i32 noundef 1, i32 noundef 0)
  %25 = tail call zeroext i8 @tvb_get_uint8(ptr noundef %0, i32 noundef %18)
  %.not.i = icmp eq i8 %25, 0
  br i1 %.not.i, label %knxip_tree_add_reserved.exit, label %26

26:                                               ; preds = %22
  tail call void (ptr, ptr, ...) @proto_item_prepend_text(ptr noundef %24, ptr noundef nonnull @.str.231)
  %27 = tail call ptr (ptr, ptr, ptr, ptr, ...) @expert_add_info_format(ptr noundef %1, ptr noundef %24, ptr noundef nonnull @ei_knxip_error, ptr noundef nonnull @.str.409)
  br label %knxip_tree_add_reserved.exit

knxip_tree_add_reserved.exit:                     ; preds = %22, %26
  %.1 = phi i8 [ 1, %22 ], [ 0, %26 ]
  %28 = add i32 %6, 2
  br label %29

29:                                               ; preds = %20, %knxip_tree_add_reserved.exit, %11
  %.033 = phi i8 [ 0, %11 ], [ 0, %20 ], [ %.1, %knxip_tree_add_reserved.exit ]
  %.0 = phi i32 [ %6, %11 ], [ %18, %20 ], [ %28, %knxip_tree_add_reserved.exit ]
  store i32 %.0, ptr %4, align 4
  ret i8 %.033
}